; Function Attrs: mustprogress nofree norecurse nosync nounwind willreturn memory(read, inaccessiblemem: none) uwtable
define noundef i32 @_ZNK6icu_7721DTSkeletonEnumeration5countER10UErrorCode(ptr noundef nonnull readonly align 8 captures(none) dereferenceable(128) %0, ptr nonnull readnone align 4 captures(none) %1) unnamed_addr #17 align 2 {
  %3 = getelementptr inbounds nuw i8, ptr %0, i64 120
  %4 = load ptr, ptr %3, align 8, !tbaa !176
  %.not = icmp eq ptr %4, null
  br i1 %.not, label %8, label %5

5:                                                ; preds = %2
  %6 = getelementptr inbounds nuw i8, ptr %4, i64 8
  %7 = load i32, ptr %6, align 8, !tbaa !189
  br label %8

8:                                                ; preds = %2, %5
  %9 = phi i32 [ %7, %5 ], [ 0, %2 ]
  ret i32 %9
}